target datalayout = "e-m:e-p270:32:32-p271:32:32-p272:64:64-i64:64-i128:128-f80:128-n8:16:32:64-S128"
target triple = "x86_64-unknown-linux-gnu"

%"struct.msdfgen::Vector2" = type { double, double }
%"class.msdfgen::EdgeSegment.base" = type <{ ptr, i32 }>
%"class.msdfgen::CubicSegment" = type { %"class.msdfgen::EdgeSegment.base", [4 x %"struct.msdfgen::Vector2"] }

; Function Attrs: mustprogress nounwind uwtable
define linkonce_odr dso_local void @_ZN7msdfgen7Vector2C2Edd(ptr noundef nonnull align 8 dereferenceable(16) %this, double noundef %x, double noundef %y) unnamed_addr #4 comdat align 2 {
entry:
  %this.addr = alloca ptr, align 8
  %x.addr = alloca double, align 8
  %y.addr = alloca double, align 8
  store ptr %this, ptr %this.addr, align 8
  store double %x, ptr %x.addr, align 8
  store double %y, ptr %y.addr, align 8
  %this1 = load ptr, ptr %this.addr, align 8
  %x2 = getelementptr inbounds %"struct.msdfgen::Vector2", ptr %this1, i32 0, i32 0
  %0 = load double, ptr %x.addr, align 8
  store double %0, ptr %x2, align 8
  %y3 = getelementptr inbounds %"struct.msdfgen::Vector2", ptr %this1, i32 0, i32 1
  %1 = load double, ptr %y.addr, align 8
  store double %1, ptr %y3, align 8
  ret void
}

; Function Attrs: mustprogress nounwind uwtable
define linkonce_odr dso_local noundef nonnull align 8 dereferenceable(16) ptr @_ZN7msdfgen7Vector2pLES0_(ptr noundef nonnull align 8 dereferenceable(16) %this, double %other.coerce0, double %other.coerce1) #4 comdat align 2 {
entry:
  %other = alloca %"struct.msdfgen::Vector2", align 8
  %this.addr = alloca ptr, align 8
  %0 = getelementptr inbounds { double, double }, ptr %other, i32 0, i32 0
  store double %other.coerce0, ptr %0, align 8
  %1 = getelementptr inbounds { double, double }, ptr %other, i32 0, i32 1
  store double %other.coerce1, ptr %1, align 8
  store ptr %this, ptr %this.addr, align 8
  %this1 = load ptr, ptr %this.addr, align 8
  %x = getelementptr inbounds %"struct.msdfgen::Vector2", ptr %other, i32 0, i32 0
  %2 = load double, ptr %x, align 8
  %x2 = getelementptr inbounds %"struct.msdfgen::Vector2", ptr %this1, i32 0, i32 0
  %3 = load double, ptr %x2, align 8
  %add = fadd double %3, %2
  store double %add, ptr %x2, align 8
  %y = getelementptr inbounds %"struct.msdfgen::Vector2", ptr %other, i32 0, i32 1
  %4 = load double, ptr %y, align 8
  %y3 = getelementptr inbounds %"struct.msdfgen::Vector2", ptr %this1, i32 0, i32 1
  %5 = load double, ptr %y3, align 8
  %add4 = fadd double %5, %4
  store double %add4, ptr %y3, align 8
  ret ptr %this1
}

; Function Attrs: mustprogress uwtable
define linkonce_odr dso_local { double, double } @_ZN7msdfgenmiENS_7Vector2ES0_(double %a.coerce0, double %a.coerce1, double %b.coerce0, double %b.coerce1) #0 comdat {
entry:
  %retval = alloca %"struct.msdfgen::Vector2", align 8
  %a = alloca %"struct.msdfgen::Vector2", align 8
  %b = alloca %"struct.msdfgen::Vector2", align 8
  %0 = getelementptr inbounds { double, double }, ptr %a, i32 0, i32 0
  store double %a.coerce0, ptr %0, align 8
  %1 = getelementptr inbounds { double, double }, ptr %a, i32 0, i32 1
  store double %a.coerce1, ptr %1, align 8
  %2 = getelementptr inbounds { double, double }, ptr %b, i32 0, i32 0
  store double %b.coerce0, ptr %2, align 8
  %3 = getelementptr inbounds { double, double }, ptr %b, i32 0, i32 1
  store double %b.coerce1, ptr %3, align 8
  %x = getelementptr inbounds %"struct.msdfgen::Vector2", ptr %a, i32 0, i32 0
  %4 = load double, ptr %x, align 8
  %x1 = getelementptr inbounds %"struct.msdfgen::Vector2", ptr %b, i32 0, i32 0
  %5 = load double, ptr %x1, align 8
  %sub = fsub double %4, %5
  %y = getelementptr inbounds %"struct.msdfgen::Vector2", ptr %a, i32 0, i32 1
  %6 = load double, ptr %y, align 8
  %y2 = getelementptr inbounds %"struct.msdfgen::Vector2", ptr %b, i32 0, i32 1
  %7 = load double, ptr %y2, align 8
  %sub3 = fsub double %6, %7
  call void @_ZN7msdfgen7Vector2C2Edd(ptr noundef nonnull align 8 dereferenceable(16) %retval, double noundef %sub, double noundef %sub3)
  %8 = load { double, double }, ptr %retval, align 8
  ret { double, double } %8
}

; Function Attrs: mustprogress uwtable
define dso_local void @_ZN7msdfgen12CubicSegment12moveEndPointENS_7Vector2E(ptr noundef nonnull align 8 dereferenceable(80) %this, double %to.coerce0, double %to.coerce1) unnamed_addr #0 align 2 {
entry:
  %to = alloca %"struct.msdfgen::Vector2", align 8
  %this.addr = alloca ptr, align 8
  %agg.tmp = alloca %"struct.msdfgen::Vector2", align 8
  %agg.tmp2 = alloca %"struct.msdfgen::Vector2", align 8
  %agg.tmp3 = alloca %"struct.msdfgen::Vector2", align 8
  %0 = getelementptr inbounds { double, double }, ptr %to, i32 0, i32 0
  store double %to.coerce0, ptr %0, align 8
  %1 = getelementptr inbounds { double, double }, ptr %to, i32 0, i32 1
  store double %to.coerce1, ptr %1, align 8
  store ptr %this, ptr %this.addr, align 8
  %this1 = load ptr, ptr %this.addr, align 8
  call void @llvm.memcpy.p0.p0.i64(ptr align 8 %agg.tmp2, ptr align 8 %to, i64 16, i1 false)
  %p = getelementptr inbounds %"class.msdfgen::CubicSegment", ptr %this1, i32 0, i32 1
  %arrayidx = getelementptr inbounds [4 x %"struct.msdfgen::Vector2"], ptr %p, i64 0, i64 3
  call void @llvm.memcpy.p0.p0.i64(ptr align 8 %agg.tmp3, ptr align 8 %arrayidx, i64 16, i1 false)
  %2 = getelementptr inbounds { double, double }, ptr %agg.tmp2, i32 0, i32 0
  %3 = load double, ptr %2, align 8
  %4 = getelementptr inbounds { double, double }, ptr %agg.tmp2, i32 0, i32 1
  %5 = load double, ptr %4, align 8
  %6 = getelementptr inbounds { double, double }, ptr %agg.tmp3, i32 0, i32 0
  %7 = load double, ptr %6, align 8
  %8 = getelementptr inbounds { double, double }, ptr %agg.tmp3, i32 0, i32 1
  %9 = load double, ptr %8, align 8
  %call = call { double, double } @_ZN7msdfgenmiENS_7Vector2ES0_(double %3, double %5, double %7, double %9)
  %10 = getelementptr inbounds { double, double }, ptr %agg.tmp, i32 0, i32 0
  %11 = extractvalue { double, double } %call, 0
  store double %11, ptr %10, align 8
  %12 = getelementptr inbounds { double, double }, ptr %agg.tmp, i32 0, i32 1
  %13 = extractvalue { double, double } %call, 1
  store double %13, ptr %12, align 8
  %p4 = getelementptr inbounds %"class.msdfgen::CubicSegment", ptr %this1, i32 0, i32 1
  %arrayidx5 = getelementptr inbounds [4 x %"struct.msdfgen::Vector2"], ptr %p4, i64 0, i64 2
  %14 = getelementptr inbounds { double, double }, ptr %agg.tmp, i32 0, i32 0
  %15 = load double, ptr %14, align 8
  %16 = getelementptr inbounds { double, double }, ptr %agg.tmp, i32 0, i32 1
  %17 = load double, ptr %16, align 8
  %call6 = call noundef nonnull align 8 dereferenceable(16) ptr @_ZN7msdfgen7Vector2pLES0_(ptr noundef nonnull align 8 dereferenceable(16) %arrayidx5, double %15, double %17)
  %p7 = getelementptr inbounds %"class.msdfgen::CubicSegment", ptr %this1, i32 0, i32 1
  %arrayidx8 = getelementptr inbounds [4 x %"struct.msdfgen::Vector2"], ptr %p7, i64 0, i64 3
  call void @llvm.memcpy.p0.p0.i64(ptr align 8 %arrayidx8, ptr align 8 %to, i64 16, i1 false)
  ret void
}