; Function Attrs: mustprogress nofree norecurse nosync nounwind willreturn memory(argmem: readwrite) uwtable
define dso_local void @_ZN7msdfgen12CubicSegment12moveEndPointENS_7Vector2E(ptr nocapture noundef nonnull align 8 dereferenceable(80) %this, double %to.coerce0, double %to.coerce1) unnamed_addr #10 align 2 {
entry:
  %arrayidx = getelementptr inbounds i8, ptr %this, i64 64
  %agg.tmp3.sroa.2.0.arrayidx.sroa_idx = getelementptr inbounds i8, ptr %this, i64 72
  %arrayidx5 = getelementptr inbounds i8, ptr %this, i64 48
  %0 = load <2 x double>, ptr %arrayidx, align 8
  %1 = insertelement <2 x double> poison, double %to.coerce0, i64 0
  %2 = insertelement <2 x double> %1, double %to.coerce1, i64 1
  %3 = fsub <2 x double> %2, %0
  %4 = load <2 x double>, ptr %arrayidx5, align 8
  %5 = fadd <2 x double> %3, %4
  store <2 x double> %5, ptr %arrayidx5, align 8
  store double %to.coerce0, ptr %arrayidx, align 8
  store double %to.coerce1, ptr %agg.tmp3.sroa.2.0.arrayidx.sroa_idx, align 8
  ret void
}